target datalayout = "e-m:e-p270:32:32-p271:32:32-p272:64:64-i64:64-i128:128-f80:128-n8:16:32:64-S128"
target triple = "x86_64-pc-linux-gnu"

@.str.4 = private unnamed_addr constant [9 x i8] c"20031129\00", align 1
@.str.138 = private unnamed_addr constant [8 x i8] c"DOM/XML\00", align 1
@.str.139 = private unnamed_addr constant [8 x i8] c"enabled\00", align 1
@.str.140 = private unnamed_addr constant [20 x i8] c"DOM/XML API Version\00", align 1
@.str.141 = private unnamed_addr constant [15 x i8] c"libxml Version\00", align 1
@.str.142 = private unnamed_addr constant [7 x i8] c"2.9.13\00", align 1
@.str.143 = private unnamed_addr constant [13 x i8] c"HTML Support\00", align 1
@.str.144 = private unnamed_addr constant [14 x i8] c"XPath Support\00", align 1
@.str.145 = private unnamed_addr constant [17 x i8] c"XPointer Support\00", align 1
@.str.146 = private unnamed_addr constant [15 x i8] c"Schema Support\00", align 1
@.str.147 = private unnamed_addr constant [16 x i8] c"RelaxNG Support\00", align 1

; Function Attrs: nounwind uwtable
define hidden void @zm_info_dom(ptr noundef %0) #0 {
  %2 = alloca ptr, align 8
  store ptr %0, ptr %2, align 8
  call void @php_info_print_table_start()
  call void (i32, ...) @php_info_print_table_row(i32 noundef 2, ptr noundef @.str.138, ptr noundef @.str.139)
  call void (i32, ...) @php_info_print_table_row(i32 noundef 2, ptr noundef @.str.140, ptr noundef @.str.4)
  call void (i32, ...) @php_info_print_table_row(i32 noundef 2, ptr noundef @.str.141, ptr noundef @.str.142)
  call void (i32, ...) @php_info_print_table_row(i32 noundef 2, ptr noundef @.str.143, ptr noundef @.str.139)
  call void (i32, ...) @php_info_print_table_row(i32 noundef 2, ptr noundef @.str.144, ptr noundef @.str.139)
  call void (i32, ...) @php_info_print_table_row(i32 noundef 2, ptr noundef @.str.145, ptr noundef @.str.139)
  call void (i32, ...) @php_info_print_table_row(i32 noundef 2, ptr noundef @.str.146, ptr noundef @.str.139)
  call void (i32, ...) @php_info_print_table_row(i32 noundef 2, ptr noundef @.str.147, ptr noundef @.str.139)
  call void @php_info_print_table_end()
  ret void
}