; Function Attrs: nounwind uwtable
define hidden void @zm_info_dom(ptr nocapture readnone %0) #1 {
  tail call void @php_info_print_table_start() #16
  tail call void (i32, ...) @php_info_print_table_row(i32 noundef 2, ptr noundef nonnull @.str.138, ptr noundef nonnull @.str.139) #16
  tail call void (i32, ...) @php_info_print_table_row(i32 noundef 2, ptr noundef nonnull @.str.140, ptr noundef nonnull @.str.4) #16
  tail call void (i32, ...) @php_info_print_table_row(i32 noundef 2, ptr noundef nonnull @.str.141, ptr noundef nonnull @.str.142) #16
  tail call void (i32, ...) @php_info_print_table_row(i32 noundef 2, ptr noundef nonnull @.str.143, ptr noundef nonnull @.str.139) #16
  tail call void (i32, ...) @php_info_print_table_row(i32 noundef 2, ptr noundef nonnull @.str.144, ptr noundef nonnull @.str.139) #16
  tail call void (i32, ...) @php_info_print_table_row(i32 noundef 2, ptr noundef nonnull @.str.145, ptr noundef nonnull @.str.139) #16
  tail call void (i32, ...) @php_info_print_table_row(i32 noundef 2, ptr noundef nonnull @.str.146, ptr noundef nonnull @.str.139) #16
  tail call void (i32, ...) @php_info_print_table_row(i32 noundef 2, ptr noundef nonnull @.str.147, ptr noundef nonnull @.str.139) #16
  tail call void @php_info_print_table_end() #16
  ret void
}